(lp0
(dp1
S'/training/ravi/rootcap'
p2
(lp3
S'AGUPT6031ASD001_26_03_2013.pdf'
p4
aS'tn-reg-rootcap-linux.pdf'
p5
aS'rootcaplinux-profile.pdf'
p6
aS'149668_1049702_21_tax_compliance_charts.pdf'
p7
aS'CustomerHome.pdf'
p8
aS'terms_conditions.pdf'
p9
aS'rootcaplinux-company-profile.pdf'
p10
aS'J_ravi_profile.pdf'
p11
asa(dp12
S'/training/ravi/rootcap/tax-filling-FY-12-13'
p13
(lp14
S'Service-Tax-AGUPT6031ASD001_26_03_2013.pdf'
p15
aS'FORM26AS-AGUPT6031A-2013.pdf'
p16
aS'Bank-Statement-FY12-13.pdf'
p17
aS'HOME-Loan-FY-12-13.pdf'
p18
aS'LIC-PreMium-FY-12-13.pdf'
p19
asa(dp20
S'/training/ravi/rootcap/template'
p21
(lp22
sa(dp23
S'/training/ravi/rootcap/sn'
p24
(lp25
sa(dp26
S'/training/ravi/rootcap/tax-filing-fy-13-14'
p27
(lp28
S'Service-Tax-AGUPT6031ASD001_26_03_2013.pdf'
p29
aS'licpayment.pdf'
p30
aS'Form_26AS.pdf'
p31
aS'2311200474605801000.pdf'
p32
asa(dp33
S'/training/ravi/rootcap/tax-filing-fy-13-14/bank-statement'
p34
(lp35
S'ROOTCAP LINUX_2.pdf'
p36
aS'CA_196096_ROOTCAP LINUX_1.pdf'
p37
asa(dp38
S'/training/ravi/rootcap/service-tax'
p39
(lp40
sa(dp41
S'/training/ravi/rootcap/service-tax/2013-2014'
p42
(lp43
sa(dp44
S'/training/ravi/rootcap/service-tax/2013-2014/Q3'
p45
(lp46
S'21236751_1388809733641.pdf'
p47
aS'2-Invoices.pdf'
p48
aS'4-Invoices.pdf'
p49
aS'9-Invoices.pdf'
p50
asa(dp51
S'/training/ravi/rootcap/service-tax/2013-2014/Q1'
p52
(lp53
S'Q1-FY13-14-10-Invoices.pdf'
p54
aS'Q1-21236751_1373023910214.pdf'
p55
asa(dp56
S'/training/ravi/rootcap/service-tax/2013-2014/Q2'
p57
(lp58
S'1-Invoices.pdf'
p59
aS'6-Invoices.pdf'
p60
aS'Q2-21236751_1382623801474.pdf'
p61
aS'Service-tax-considated-amt-siwapp - Dashboard.pdf'
p62
aS'9-Invoices.pdf'
p63
asa(dp64
S'/training/ravi/rootcap/service-tax/2013-2014/Q4'
p65
(lp66
S'21236751_1396679352414.pdf'
p67
aS'3-Invoices.pdf'
p68
aS'8-Invoices.pdf'
p69
asa(dp70
S'/training/ravi/rootcap/service-tax/2014-2015'
p71
(lp72
sa(dp73
S'/training/ravi/rootcap/service-tax/2014-2015/q2'
p74
(lp75
S'5-Invoices (1).pdf'
p76
aS'21236751_1412351979940.pdf'
p77
aS'5-Invoices.pdf'
p78
aS'2014-q2-jul-sep-invoices.pdf'
p79
asa(dp80
S'/training/ravi/rootcap/service-tax/2014-2015/q4'
p81
(lp82
S'21236751_1428163016100.pdf'
p83
aS'2-Invoices(2).pdf'
p84
aS'9-Invoices(1).pdf'
p85
asa(dp86
S'/training/ravi/rootcap/service-tax/2014-2015/q1'
p87
(lp88
S'21236751_1409593917427.pdf'
p89
aS'9-Invoices (1).pdf'
p90
aS'3-Invoices (1).pdf'
p91
aS'6-Invoices (2).pdf'
p92
asa(dp93
S'/training/ravi/rootcap/service-tax/2014-2015/q3'
p94
(lp95
S'6-Invoices(1).pdf'
p96
aS'2-Invoices(1).pdf'
p97
aS'21236751_1420378961398.pdf'
p98
asa.